Certificate:
    Data:
        Version: 3 (0x2)
        Serial Number: 1 (0x1)
        Signature Algorithm: sha256WithRSAEncryption
        Issuer: C=PL, ST=Dolnoslaskie, O=Inteca sp. z o.o., OU=TPP/organizationIdentifier=PSDPL-PFSA-6462948587, CN=Inteca.com
        Validity
            Not Before: Sep 26 13:59:26 2019 GMT
            Not After : Sep 23 13:59:26 2029 GMT
        Subject: C=PL, ST=Dolnoslaskie, O=Inteca sp. z o.o., OU=TPP/organizationIdentifier=PSDPL-PFSA-6462948587, CN=Inteca.com
        Subject Public Key Info:
            Public Key Algorithm: rsaEncryption
                RSA Public-Key: (2048 bit)
                Modulus:
                    00:cf:59:1b:ca:a4:a1:86:68:59:b3:28:ad:97:10:
                    ae:97:ba:41:55:a4:c0:d7:94:88:de:d2:f3:2c:a3:
                    62:b2:9c:2f:32:be:8a:07:73:d1:ee:f1:03:2c:c2:
                    db:77:a8:9e:b6:02:81:24:06:af:d8:25:a2:5f:fb:
                    5a:d5:5f:37:18:fd:28:46:5d:66:40:96:30:5b:c5:
                    85:b7:c2:47:4c:8d:a4:b1:86:45:4b:eb:6b:9f:f1:
                    a2:47:74:a3:5d:2b:f9:1b:32:8f:1a:55:6f:93:ad:
                    c5:52:ea:5f:27:ef:32:13:fd:73:05:30:46:f6:6a:
                    a9:5c:e3:ec:49:8a:9e:bd:c0:0e:1a:ce:b6:02:0e:
                    4d:a5:f2:f6:0e:0e:0d:13:27:ad:f9:5d:8e:7a:b2:
                    d8:1c:3e:bc:00:98:f5:7f:2f:3f:52:16:13:0d:f7:
                    48:fe:02:9f:7c:43:df:e9:36:d2:ab:aa:38:34:15:
                    1a:94:5b:fe:16:3e:4b:0c:3d:a8:87:29:25:2d:01:
                    18:4f:9a:20:30:6d:4b:0b:bd:58:6a:c2:be:57:3c:
                    70:40:0d:1f:c9:d8:9b:85:65:ae:47:aa:82:cd:fc:
                    78:9e:48:9f:9d:c1:c7:5a:b0:04:4d:d7:0f:50:3f:
                    99:a4:8a:54:3c:16:38:86:35:6d:b2:58:f2:53:58:
                    f7:99
                Exponent: 65537 (0x10001)
        X509v3 extensions:
            Netscape Comment: 
                OpenSSL Generated Certificate
            X509v3 Authority Key Identifier: 
                keyid:4A:70:B8:5E:90:31:0E:34:1B:EF:78:7F:DC:32:02:7C:29:F9:9F:77

            X509v3 Basic Constraints: 
                CA:FALSE
            X509v3 Subject Key Identifier: 
                4A:70:B8:5E:90:31:0E:34:1B:EF:78:7F:DC:32:02:7C:29:F9:9F:77
            X509v3 Key Usage: 
                Digital Signature, Non Repudiation
            X509v3 Extended Key Usage: 
                TLS Web Client Authentication, TLS Web Server Authentication
            qcStatements: 
                0..0......F..08.....F..0.0,.!https://example.org/pkidisclosure..example0........'.0.0L0.......'....PSP_AI0.......'....PSP_AS0.......'....PSP_PI0.......'....PSP_IC.&Polish Financial Supervision Authority..PL-PFSA0%.....F..0......F........F........F...
    Signature Algorithm: sha256WithRSAEncryption
         6d:29:a2:c2:be:3d:b3:fa:24:31:2f:70:b5:01:0b:65:e8:54:
         1a:91:fa:7e:2a:7b:1d:95:13:be:bf:22:ff:06:07:2f:d6:b1:
         73:59:60:80:7b:41:8d:18:f9:a2:8b:50:2d:81:ea:e7:ab:49:
         c3:8c:ca:14:c1:ec:83:09:54:74:ea:48:4b:15:6e:72:6e:ac:
         a6:a1:72:ff:da:79:8a:88:f3:6a:49:7c:a3:58:51:7f:6f:ec:
         29:8a:77:b1:c6:10:9f:b7:82:f0:81:0a:e4:10:0a:64:fd:b8:
         17:d2:ae:d1:5c:83:e9:c4:ab:c0:67:b0:0b:fc:0c:0a:96:7b:
         19:08:d9:40:aa:bb:40:a3:34:57:da:ae:ce:08:37:a5:d5:b2:
         2e:cd:21:92:dc:6a:94:fe:3c:94:15:e1:19:3c:69:97:47:a0:
         19:95:1e:9f:1a:ad:32:c1:f4:94:bf:e7:18:c1:ab:af:96:6b:
         e5:b8:4c:ed:bd:5e:f7:4e:24:30:f0:d6:48:30:30:f6:ab:f2:
         83:2b:32:28:71:7d:48:6c:08:20:08:e0:9a:cb:63:af:1b:87:
         d6:b4:ca:34:05:59:91:3f:5a:69:b2:9f:29:76:2d:82:06:51:
         4b:aa:76:9e:da:d1:57:22:cf:1f:35:49:4f:5f:f9:64:bc:cb:
         f6:7e:63:29
-----BEGIN CERTIFICATE-----
MIIFOTCCBCGgAwIBAgIBATANBgkqhkiG9w0BAQsFADCBgzELMAkGA1UEBhMCUEwx
FTATBgNVBAgMDERvbG5vc2xhc2tpZTEaMBgGA1UECgwRSW50ZWNhIHNwLiB6IG8u
by4xDDAKBgNVBAsMA1RQUDEeMBwGA1UEYQwVUFNEUEwtUEZTQS02NDYyOTQ4NTg3
MRMwEQYDVQQDDApJbnRlY2EuY29tMB4XDTE5MDkyNjEzNTkyNloXDTI5MDkyMzEz
NTkyNlowgYMxCzAJBgNVBAYTAlBMMRUwEwYDVQQIDAxEb2xub3NsYXNraWUxGjAY
BgNVBAoMEUludGVjYSBzcC4geiBvLm8uMQwwCgYDVQQLDANUUFAxHjAcBgNVBGEM
FVBTRFBMLVBGU0EtNjQ2Mjk0ODU4NzETMBEGA1UEAwwKSW50ZWNhLmNvbTCCASIw
DQYJKoZIhvcNAQEBBQADggEPADCCAQoCggEBAM9ZG8qkoYZoWbMorZcQrpe6QVWk
wNeUiN7S8yyjYrKcLzK+igdz0e7xAyzC23eonrYCgSQGr9glol/7WtVfNxj9KEZd
ZkCWMFvFhbfCR0yNpLGGRUvra5/xokd0o10r+RsyjxpVb5OtxVLqXyfvMhP9cwUw
RvZqqVzj7EmKnr3ADhrOtgIOTaXy9g4ODRMnrfldjnqy2Bw+vACY9X8vP1IWEw33
SP4Cn3xD3+k20quqODQVGpRb/hY+Sww9qIcpJS0BGE+aIDBtSwu9WGrCvlc8cEAN
H8nYm4Vlrkeqgs38eJ5In53Bx1qwBE3XD1A/maSKVDwWOIY1bbJY8lNY95kCAwEA
AaOCAbQwggGwMCwGCWCGSAGG+EIBDQQfFh1PcGVuU1NMIEdlbmVyYXRlZCBDZXJ0
aWZpY2F0ZTAfBgNVHSMEGDAWgBRKcLhekDEONBvveH/cMgJ8KfmfdzAJBgNVHRME
AjAAMB0GA1UdDgQWBBRKcLhekDEONBvveH/cMgJ8KfmfdzALBgNVHQ8EBAMCBsAw
HQYDVR0lBBYwFAYIKwYBBQUHAwIGCCsGAQUFBwMBMIIBBwYIKwYBBQUHAQMEgfow
gfcwCAYGBACORgEBMDgGBgQAjkYBBTAuMCwWIWh0dHBzOi8vZXhhbXBsZS5vcmcv
cGtpZGlzY2xvc3VyZRMHZXhhbXBsZTCBiQYGBACBmCcCMH8wTDARBgcEAIGYJwED
DAZQU1BfQUkwEQYHBACBmCcBAQwGUFNQX0FTMBEGBwQAgZgnAQIMBlBTUF9QSTAR
BgcEAIGYJwEEDAZQU1BfSUMMJlBvbGlzaCBGaW5hbmNpYWwgU3VwZXJ2aXNpb24g
QXV0aG9yaXR5DAdQTC1QRlNBMCUGBgQAjkYBBjAbBgcEAI5GAQYBBgcEAI5GAQYC
BgcEAI5GAQYDMA0GCSqGSIb3DQEBCwUAA4IBAQBtKaLCvj2z+iQxL3C1AQtl6FQa
kfp+KnsdlRO+vyL/Bgcv1rFzWWCAe0GNGPmii1Atgernq0nDjMoUweyDCVR06khL
FW5ybqymoXL/2nmKiPNqSXyjWFF/b+wpinexxhCft4LwgQrkEApk/bgX0q7RXIPp
xKvAZ7AL/AwKlnsZCNlAqrtAozRX2q7OCDel1bIuzSGS3GqU/jyUFeEZPGmXR6AZ
lR6fGq0ywfSUv+cYwauvlmvluEztvV73TiQw8NZIMDD2q/KDKzIocX1IbAggCOCa
y2OvG4fWtMo0BVmRP1ppsp8pdi2CBlFLqnae2tFXIs8fNUlPX/lkvMv2fmMp
-----END CERTIFICATE-----
